; Function Attrs: nounwind uwtable
define i32 @Pa_StartStream(ptr noundef %0) local_unnamed_addr #3 {
  %2 = load i32, ptr @initializationCount_, align 4
  %.not.i = icmp eq i32 %2, 0
  br i1 %.not.i, label %PaUtil_ValidateStreamPointer.exit.thread, label %3

3:                                                ; preds = %1
  %4 = icmp eq ptr %0, null
  br i1 %4, label %PaUtil_ValidateStreamPointer.exit.thread, label %5

5:                                                ; preds = %3
  %6 = load i64, ptr %0, align 8
  %.not3.i = icmp eq i64 %6, 405222981
  br i1 %.not3.i, label %PaUtil_ValidateStreamPointer.exit, label %PaUtil_ValidateStreamPointer.exit.thread

PaUtil_ValidateStreamPointer.exit:                ; preds = %5
  %7 = getelementptr inbounds nuw i8, ptr %0, i64 16
  %8 = load ptr, ptr %7, align 8
  %9 = getelementptr inbounds nuw i8, ptr %8, i64 32
  %10 = load ptr, ptr %9, align 8
  %11 = tail call i32 %10(ptr noundef nonnull %0) #12
  switch i32 %11, label %.fold.split [
    i32 0, label %PaUtil_ValidateStreamPointer.exit.thread
    i32 1, label %12
  ]

12:                                               ; preds = %PaUtil_ValidateStreamPointer.exit
  %13 = load ptr, ptr %7, align 8
  %14 = getelementptr inbounds nuw i8, ptr %13, i64 8
  %15 = load ptr, ptr %14, align 8
  %16 = tail call i32 %15(ptr noundef nonnull %0) #12
  br label %PaUtil_ValidateStreamPointer.exit.thread

.fold.split:                                      ; preds = %PaUtil_ValidateStreamPointer.exit
  br label %PaUtil_ValidateStreamPointer.exit.thread

PaUtil_ValidateStreamPointer.exit.thread:         ; preds = %5, %3, %1, %PaUtil_ValidateStreamPointer.exit, %.fold.split, %12
  %.0 = phi i32 [ %16, %12 ], [ -9982, %PaUtil_ValidateStreamPointer.exit ], [ %11, %.fold.split ], [ -9988, %5 ], [ -9988, %3 ], [ -10000, %1 ]
  ret i32 %.0
}